Certificate:
    Data:
        Version: 1 (0x0)
        Serial Number: 191 (0xbf)
    Signature Algorithm: sha256WithRSAEncryption
        Issuer: O=NOVA ROOT, L=Mountain View, ST=California, C=US
        Validity
            Not Before: May 11 01:55:46 2016 GMT
            Not After : May 11 01:55:46 2017 GMT
        Subject: C=US, O=OpenStack, CN=f3b76a84740f45a9-ed14c6e852a6446a-2016-05-11T01:55:46Z
        Subject Public Key Info:
            Public Key Algorithm: rsaEncryption
                Public-Key: (2048 bit)
                Modulus:
                    00:a8:db:8b:b1:a7:a5:e4:27:df:33:2b:49:e0:15:
                    d2:e5:13:4a:ec:64:a9:5a:7c:e8:48:28:21:60:6b:
                    d8:84:f8:97:17:5c:9c:d3:92:e5:d7:84:e8:ff:50:
                    f2:e4:77:b4:86:3b:a8:9e:b7:23:a5:78:bc:f0:cf:
                    3a:68:f5:fc:45:03:92:38:38:82:32:db:e9:3a:74:
                    92:51:ca:5e:1e:b7:67:b2:5b:a9:06:6a:d0:a5:27:
                    61:27:24:a6:3e:ae:56:3b:98:43:99:62:b3:84:83:
                    fc:f7:85:12:dd:1f:70:cb:0e:1e:50:dc:1c:a8:20:
                    be:c8:8c:f4:19:e4:bc:83:4a:16:44:4f:2e:63:f6:
                    a2:cb:19:a8:b7:09:3a:d1:e7:5a:8d:da:9f:15:ba:
                    92:1e:4e:b4:60:a8:8f:ab:e1:69:f2:2a:c8:6e:55:
                    9a:5c:6e:e8:99:f2:26:7f:5f:a6:87:d7:27:e0:3e:
                    0f:24:b4:b5:cb:b3:c4:c4:35:c9:bc:7c:3b:f4:77:
                    6f:44:41:75:87:cc:4c:52:c7:83:0a:59:bd:01:54:
                    e0:8d:ed:5a:c3:ff:96:b5:b3:f0:5d:cb:1a:7f:83:
                    8a:f0:b4:d1:e3:51:5c:de:9e:3f:39:9d:ad:d7:fa:
                    0a:b0:db:61:2d:b0:8f:b4:29:e7:c6:da:2c:13:a0:
                    f2:f3
                Exponent: 65537 (0x10001)
    Signature Algorithm: sha256WithRSAEncryption
         73:4b:c5:c0:50:80:30:4f:98:8f:01:e1:c7:c5:f7:03:44:09:
         1f:26:88:df:8a:a1:26:1f:eb:5b:10:86:b8:85:5c:da:d6:d7:
         7b:eb:43:90:d5:91:25:1d:76:e7:d3:1b:df:37:9f:c0:95:73:
         8b:48:d3:f8:4f:c0:77:74:6a:fc:85:e0:6a:71:80:12:6f:59:
         35:77:61:51:59:5a:20:be:f3:b6:5d:42:21:8d:e4:7d:c7:3a:
         f5:da:26:44:2a:21:ec:73:34:ea:d4:f9:de:c4:5a:4c:ba:27:
         4b:84:77:d1:24:44:2b:10:96:e9:ff:78:f4:54:5b:f4:a8:75:
         e6:b7
-----BEGIN CERTIFICATE-----
MIICpDCCAg0CAgC/MA0GCSqGSIb3DQEBCwUAME4xEjAQBgNVBAoTCU5PVkEgUk9P
VDEWMBQGA1UEBxMNTW91bnRhaW4gVmlldzETMBEGA1UECBMKQ2FsaWZvcm5pYTEL
MAkGA1UEBhMCVVMwHhcNMTYwNTExMDE1NTQ2WhcNMTcwNTExMDE1NTQ2WjBiMQsw
CQYDVQQGEwJVUzESMBAGA1UECgwJT3BlblN0YWNrMT8wPQYDVQQDDDZmM2I3NmE4
NDc0MGY0NWE5LWVkMTRjNmU4NTJhNjQ0NmEtMjAxNi0wNS0xMVQwMTo1NTo0Nlow
ggEiMA0GCSqGSIb3DQEBAQUAA4IBDwAwggEKAoIBAQCo24uxp6XkJ98zK0ngFdLl
E0rsZKlafOhIKCFga9iE+JcXXJzTkuXXhOj/UPLkd7SGO6ietyOleLzwzzpo9fxF
A5I4OIIy2+k6dJJRyl4et2eyW6kGatClJ2EnJKY+rlY7mEOZYrOEg/z3hRLdH3DL
Dh5Q3ByoIL7IjPQZ5LyDShZETy5j9qLLGai3CTrR51qN2p8VupIeTrRgqI+r4Wny
KshuVZpcbuiZ8iZ/X6aH1yfgPg8ktLXLs8TENcm8fDv0d29EQXWHzExSx4MKWb0B
VOCN7VrD/5a1s/Bdyxp/g4rwtNHjUVzenj85na3X+gqw22EtsI+0KefG2iwToPLz
AgMBAAEwDQYJKoZIhvcNAQELBQADgYEAc0vFwFCAME+YjwHhx8X3A0QJHyaI34qh
Jh/rWxCGuIVc2tbXe+tDkNWRJR1259Mb3zefwJVzi0jT+E/Ad3Rq/IXganGAEm9Z
NXdhUVlaIL7ztl1CIY3kfcc69domRCoh7HM06tT53sRaTLonS4R30SREKxCW6f94
9FRb9Kh15rc=
-----END CERTIFICATE-----
